target datalayout = "e-m:e-p270:32:32-p271:32:32-p272:64:64-i64:64-i128:128-f80:128-n8:16:32:64-S128"
target triple = "x86_64-pc-linux-gnu"

; Function Attrs: nounwind uwtable
define dso_local i32 @slurm_hex_to_char(i32 noundef %0) #0 {
  %2 = alloca i32, align 4
  %3 = alloca i32, align 4
  store i32 %0, ptr %3, align 4
  %4 = load i32, ptr %3, align 4
  %5 = icmp sge i32 %4, 0
  br i1 %5, label %6, label %12

6:                                                ; preds = %1
  %7 = load i32, ptr %3, align 4
  %8 = icmp slt i32 %7, 10
  br i1 %8, label %9, label %12

9:                                                ; preds = %6
  %10 = load i32, ptr %3, align 4
  %11 = add nsw i32 48, %10
  store i32 %11, ptr %2, align 4
  br label %22

12:                                               ; preds = %6, %1
  %13 = load i32, ptr %3, align 4
  %14 = icmp sge i32 %13, 10
  br i1 %14, label %15, label %21

15:                                               ; preds = %12
  %16 = load i32, ptr %3, align 4
  %17 = icmp slt i32 %16, 16
  br i1 %17, label %18, label %21

18:                                               ; preds = %15
  %19 = load i32, ptr %3, align 4
  %20 = add nsw i32 87, %19
  store i32 %20, ptr %2, align 4
  br label %22

21:                                               ; preds = %15, %12
  store i32 -1, ptr %2, align 4
  br label %22

22:                                               ; preds = %21, %18, %9
  %23 = load i32, ptr %2, align 4
  ret i32 %23
}